(dp1
S'output'
p2
S"<type 'exceptions.NameError'> name 'post' is not defined"
p3
sS'layer'
p4
S'D:\\Development\\web\\web2py\\applications\\startup\\views\\default/index.html'
p5
sS'code'
p6
S'response.write(\'<html>\\n  <head>\\n    <meta charset="utf-8">\\n    <meta http-equiv="X-UA-Compatible" content="IE=edge,chrome=1">\\n    <meta name="viewport" content="width=device-width, initial-scale=1.0" />\\n    <meta name="apple-mobile-web-app-capable" content="yes" />\\n    <link href="\', escape=False)\nresponse.write(URL(\'static\',\'css/stupid.css\'))\nresponse.write(\'" rel="stylesheet" type="text/css"/>\\n    <link href="\', escape=False)\nresponse.write(URL(\'static\',\'css/custom.css\'))\nresponse.write(\'" rel="stylesheet" type="text/css"/>\\n    <link href="\', escape=False)\nresponse.write(URL(\'static\',\'css/calendar.css\'))\nresponse.write(\'" rel="stylesheet" type="text/css"/>\\n    <link href="\', escape=False)\nresponse.write(URL(\'static\',\'css/web2py.css\'))\nresponse.write(\'" rel="stylesheet" type="text/css"/>\\n    <link href="\', escape=False)\nresponse.write(URL(\'static\',\'css/myapp.css\'))\nresponse.write(\'" rel="stylesheet" type="text/css"/>\\n    <script src="https://code.jquery.com/jquery-3.1.1.js"></script>\\n    <script src="https://maxcdn.bootstrapcdn.com/bootstrap/3.3.7/js/bootstrap.min.js"></script>\\n    <link href="https://maxcdn.bootstrapcdn.com/bootstrap/3.3.7/css/bootstrap.min.css" rel="stylesheet"/>\\n    <link rel="stylesheet" href="\', escape=False)\nresponse.write(URL(\'static\', \'font-awesome-4.6.3/css/font-awesome.min.css\'))\nresponse.write(\'">\\n    \', escape=False)\nresponse.write(\'<script type="text/javascript"><!--\\n    // These variables are used by the web2py_ajax_init function in web2py_ajax.js (which is loaded below).\\n    var w2p_ajax_confirm_message = "\', escape=False)\nresponse.write(T(\'Are you sure you want to delete this object?\'))\nresponse.write(\'";\\n    var w2p_ajax_disable_with_message = "\', escape=False)\nresponse.write(T(\'Working...\'))\nresponse.write(\'";\\n    var w2p_ajax_date_format = "\', escape=False)\nresponse.write(T(\'%Y-%m-%d\'))\nresponse.write(\'";\\n    var w2p_ajax_datetime_format = "\', escape=False)\nresponse.write(T(\'%Y-%m-%d %H:%M:%S\'))\nresponse.write(\'";\\n    var ajax_error_500 = \\\'\', escape=False)\nresponse.write(T.M(\'An error occured, please [[reload %s]] the page\') % URL(args=request.args, vars=request.get_vars))\nresponse.write("\'\\n    //--></script>\\n", escape=False)\nresponse.files.insert(0,URL(\'static\',\'js/jquery.js\'))\nresponse.files.insert(1,URL(\'static\',\'css/calendar.css\'))\nresponse.files.insert(2,URL(\'static\',\'js/calendar.js\'))\nresponse.files.insert(3,URL(\'static\',\'js/web2py.js\'))\nresponse.include_meta()\nresponse.include_files()\nresponse.write(\'\\n\', escape=False)\nresponse.write(\'\\n    \', escape=False)\nresponse.write(\'\\n<script src="\', escape=False)\nresponse.write(URL(\'static\', \'js/vue.js\'))\nresponse.write(\'" xmlns:v-on="http://www.w3.org/1999/xhtml"\\n        xmlns:v-on="http://www.w3.org/1999/xhtml"></script>\\n<link rel="stylesheet" href="https://stackpath.bootstrapcdn.com/bootstrap/4.1.3/css/bootstrap.min.css" integrity="sha384-MCw98/SFnGE8fJT3GXwEOngsV7Zt27NXFoaoApmYm81iuXoPkFOJwJ8ERdknLPMO"\\n  crossorigin="anonymous">\\n<script>\\n    var add_post_url = "\', escape=False)\nresponse.write(URL(\'api\', \'add_post\', user_signature=True))\nresponse.write(\'";\\n    var get_post_list_url = "\', escape=False)\nresponse.write(URL(\'api\', \'get_post_list\'))\nresponse.write(\'";\\n    // Like callbacks.\\n    var set_like_url = "\', escape=False)\nresponse.write(URL(\'api\', \'set_like\', user_signature=True))\nresponse.write(\'";\\n    var get_likers_url = "\', escape=False)\nresponse.write(URL(\'api\', \'get_likers\'))\nresponse.write(\'";\\n    // Stars.\\n    var set_stars_url = "\', escape=False)\nresponse.write(URL(\'api\', \'set_stars\', user_signature=True))\nresponse.write(\'";\\n    var is_logged_in = \', escape=False)\nresponse.write(\'false\' if auth.user is None else \'true\')\nresponse.write(\';\\n\\n    var cur_user_email = "\', escape=False)\nresponse.write(\'false\' if auth.user is None else auth.user.email)\nresponse.write(\'";\\n\\n    // var set_thumb_url = "\', escape=False)\nresponse.write(URL(\'api\', \'set_thumb\', user_signature=True))\nresponse.write(\'";\\n    // var get_thumb_count_url = "\', escape=False)\nresponse.write(URL(\'api\', \'get_thumb_count\'))\nresponse.write(\'";\\n    // var get_thumb_entries_url = "\', escape=False)\nresponse.write(URL(\'api\', \'get_thumb_entries\', user_signature=True))\nresponse.write(\'";\\n\\n    var edit_post_url = "\', escape=False)\nresponse.write(URL(\'api\', \'edit_post\', user_signature=True))\nresponse.write(\'";\\n    var add_reply_url = "\', escape=False)\nresponse.write(URL(\'api\', \'add_reply\', user_signature=True))\nresponse.write(\'";\\n    var get_replies_url = "\', escape=False)\nresponse.write(URL(\'api\', \'get_replies\'))\nresponse.write(\'";\\n    var edit_reply_url = "\', escape=False)\nresponse.write(URL(\'api\', \'edit_reply\', user_signature=True))\nresponse.write(\'";\\n\\n    var delete_post_url ="\', escape=False)\nresponse.write(URL(\'api\', \'delete_post\', user_signature=True))\nresponse.write(\'";\\n\\n    var user_email = "\', escape=False)\nresponse.write(\'\' if auth.user is None else auth.user.email)\nresponse.write(\'";\\n\\n    var add_usr_url = "\', escape=False)\nresponse.write(URL(\'api\', \'add_usr\', user_signature=True))\nresponse.write(\'";\\n    var get_usr_list_url = "\', escape=False)\nresponse.write(URL(\'api\', \'get_usr_list\'))\nresponse.write(\'";\\n    // Like callbacks.\\n\\n</script>\\n\', escape=False)\nresponse.write(\'\\n  </head>\\n  <body class="black">\\n    \', escape=False)\nif response.flash:\n    response.write(\'\\n    <div class="w2p_flash">\\n      \', escape=False)\n    response.write(response.flash)\n    response.write(\'\\n    </div>\\n    \', escape=False)\n    pass\nresponse.write(\'\\n<!--     <header class="black padded">\\n      <div class="container middle max900">\\n        <div class="fill middle">\\n          <label class="ham padded fa fa-bars" for="menu"></label>\\n          <div class="burger accordion">\\n            <input type="checkbox" id="menu"/>\\n            \', escape=False)\nresponse.write(MENU(response.menu,_class=\'menu\'))\nresponse.write(\'\\n            <ul class="menu right">\\n              <li>\\n                \', escape=False)\nresponse.write(auth.navbar(mode=\'dropdown\'))\nresponse.write(\'\\n              </li>\\n            </ul>\\n          </div>\\n        </div>\\n      </div>\\n    </header> -->\\n\\n\\n      <main class="white">\\n      \\n      <span class="nav-logo" >StartUp</span>\\n      <span class="nav-logo-sub">for students</span>\\n      <div class="nav-div">\\n            <span class="nav-button" v-on:click="add_post">How it works</span>\\n            <span class="nav-button" v-on:click="add_post">Contact Us</span>\\n        \\n          <!--   <span class="nav-login"></span> -->\\n\\n              <!-- <span class="nav-login-text">My Account -->\\n\\n            <span class="nav-button">\\n            <!-- <input type="checkbox" id="menu"/> -->\\n            <!-- \', escape=False)\nresponse.write(MENU(response.menu,_class=\'menu\'))\nresponse.write(\' -->\\n            <ul class="menu right">\\n              <li>\\n                \', escape=False)\nresponse.write(auth.navbar(mode=\'dropdown\'))\nresponse.write(\'\\n              </li>\\n            </ul>\\n          </div> \\n      </span>\\n\\n\\n\\n    <main class="white">\\n      \', escape=False)\nresponse.write(\'\\n\\n\', escape=False)\nresponse.write(\'\\n\\n\\n\\n<div class="main_content">\\n    <div id="vue-div" class="display:none">\\n\\n\\n    <div v-if="page === 0">\\n      <div class="bgimg" style="height:1000px;">\\n          <h2 style="color:white;  zoom: 2.2; font-family: SourceHanSansSC-Bold; padding-left: 10%; padding-top: 15%;">\\n          Turn sparks into flames\\n          </h3>\\n          <h7 style="color:white;  zoom: 2;font-family: SourceHanSansSC-Bold; padding-left: 10%; padding-top: 60%;">\\n          Try out the most trending platform in 2019 for students to change the world !\\n          </h7>\\n          <h7 style="color:white; font-family: SourceHanSansSC-Bold; padding-left: 30%; ">\\n          </h7>\\n\\n          <div class="card-deck" style="padding-left:11%; padding-top:140px;">\\n\\n          <div class="d-inline">\\n            <div class="card" style="width: 28rem; height:38rem;">\\n          <img class="card-img-top" style=" zoom: 1.5;" src="http://pluspng.com/img-png/png-logo-design-boldmedia-flat-logo-design-for-web-design-company-author-jeroen-van-eerden-670.png" alt="Card image cap"/>\\n          <div class="card-body" style="padding-top:165px; ">\\n          <h5 class="card-title" style=" zoom: 1.5;">TM Master</h5>\\n          <p class="card-text" style=" zoom: 1.4;">An ultimate project management tool that helps manage your team and project in the most efficient way</p>\\n          <a href="#" style=" zoom: 1.7;background-color:#58C5E4; border-color:#58C5E4; "class="btn btn-primary">Explore</a>\\n          </div>\\n          </div>\\n          </div>\\n\\n          <div class="d-inline" style="padding-left:7%">\\n          <div class="card" style="width: 28rem; height:38rem;">\\n          <img class="card-img-top" src="https://mir-s3-cdn-cf.behance.net/project_modules/disp/065e3217174739.562b6c9c486a0.png" alt="Card image cap"/>\\n          <div class="card-body" style="padding-top:165px">\\n          <h5 class="card-title" style=" zoom: 1.5;">ONAK 2.0 - Origami Canoe</h5>\\n          <p class="card-text" style=" zoom: 1.4;">We developed the ONAK 2.0 to make paddling even easier and more accessible than ever before. Our customers provided amazing feedback. </p>\\n          <a href="#" style=" zoom: 1.7; background-color:#58C5E4; border-color:#58C5E4;" class="btn btn-primary">Explore</a>\\n          </div>\\n          </div>\\n          </div>\\n\\n          <div class="d-inline" style="padding-left:7%">\\n          <div class="card" style="width: 28rem; height:38rem;">\\n          <img class="card-img-top" src="https://i.redd.it/xkmgc2a81w211.png" alt="Card image cap"/>\\n          <div class="card-body" style="padding-top:165px">\\n          <h5 class="card-title" style=" zoom: 1.5;">Hive Explorer | First Smart Insect Farm for Starters</h5>\\n          <p class="card-text" style=" zoom: 1.4;">Grow edible protein and fertilizer on food waste | Grown-Ups & Kids | Fun STEM education kit | Safe, Regulated Ecosystem</p>\\n          <a href="#" style=" zoom: 1.7; background-color:#58C5E4; border-color:#58C5E4;" class="btn btn-primary">Explore</a>\\n          </div>\\n          </div>\\n          </div>\\n          <!-- end of d-inline -->\\n\\n          </div>\\n          <!-- end of card-deck -->\\n      </div>\\n    </div>\\n<!-- end of page0 -->\\n\\n    <div v-if="page === 2">\\n      <div>\\n        <button class="btn btn-primary" style="background-color:#58C5E4; border-color:#58C5E4; zoom:1.5"  v-on:click="page=1">Home</button>\\n        <div style="padding-left: 10%; width: 95%;">\\n          <h2 style="color:#333;  zoom: 2; font-family: SourceHanSansSC-Bold; padding-top: 10%;">${detail.post_title}\\n          <span style="font-family: SourceHanSansSC-Bold;" class="badge badge-secondary">${detail.post_author}</span></h2>\\n          <h7 style="color:#666;  zoom: 2;font-family: SourceHanSansSC-Bold;padding-top: 60%;">\\n          ${detail.post_content}\\n              <!--${detail}-->\\n          </h7>\\n        </div>\\n        <div v-for="reply in detail.replies">\\n                    <hr style="margin:50px 10%;">\\n            <center style="color:#444; zoom: 2;font-family: SourceHanSansSC-Bold; text-align: center"> Replay </center>\\n                    <div style="margin:0 10%;">\\n                        <center style="color:#444; zoom: 2;font-family: SourceHanSansSC-Regular;padding-top: 22px;text-align: center">\\n                            ${reply}\\n                        </center>\\n                    </div>\\n                </div>\\n\\n        <div class="form-hint" style="margin:100px 10%; font-size:15px; color:#999">\\n            End\\n        </div>\\n\\n\\n      </div>\\n    </div>\\n<!-- End of Page2 -->\\n\\n\\n\\n    <div v-if="page === 1">\\n      <div id="add_post" v-show="form_set" style="display:none">\\n        <div style="padding-left:10%; width:90%" >\\n\\n      <label class="form-hint">Idea</label>\\n      <textarea type="text" v-model="form_title" placeholder="Enter your idea"\\n      class="md-textarea form-control" rows="1" style="border-color:#58C5E4;font-size:14px"\\n      ></textarea>\\n\\n      <label class="form-hint">Image</label>\\n            <input type="file"  @change="on_file_change" v-model="form_image"  placeholder="Enter image Url" class="md-textarea form-control"\\n                   rows="1" style="border-color:#58C5E4;font-size:14px;padding: 0;"/>\\n\\n\\n      <label class="form-hint">Description</label>\\n      <textarea type="text" v-model="form_content" id="lname" name="lastname" placeholder="Enter idea description" class="md-textarea form-control"\\n      style="border-color:#58C5E4;font-size:14px; height:100px"></textarea>\\n      <div style="padding-top:12px;">\\n      <button id="add-post" style=" zoom: 1.7; background-color:#58C5E4; border-color:#58C5E4;" v-on:click="add_post">Submit</button>\\n      </div>\\n      </div>\\n\\n      </div>\\n\\n      <div style="padding-left: 9%; padding-top:3%">\\n      <span style="font-family: SourceHanSansSC-Bold; font-size: 32px; color: #58C5E4; letter-spacing: 2px;">\\n      Trending\\n      </span>\\n      <div  class="right" style="padding-right:20%; padding-top:1%; width:30px" >\\n         <button class="btn btn-primary" style="background-color:#58C5E4; border-color:#58C5E4; zoom:1.5"  v-on:click="toggle_form">Add post</button>\\n      </div>\\n\\n        <div  class="right" style="padding-right:10%; padding-top:1%; width:30px" >\\n         <button class="btn btn-primary" style="background-color:#58C5E4; border-color:#58C5E4; zoom:1.5"  v-on:click="get_usr">Profile</button>\\n      </div>\\n      </div>\\n\\n      <!-- Message in case there are no posts. -->\\n      <div v-if="post_list.length === 0">There are no posts.</div>\\n\\n      <!-- We display the posts. -->\\n\\n      <!-- main page will display three posts with images in each row -->\\n\\n      <div id="post_list" style="padding-top:5%">\\n        <div class="card-deck" style="padding-left:10%">\\n        <div class="d-inline" v-for="post in post_list" style="padding-right:50px; padding-bottom:100px">\\n\\n            <div class="card" style="width: 28rem; height:42rem;">\\n            <img class="card-img-top" src="\', escape=False)\npost.post_image\nresponse.write(\'"/>\\n            <div class="card-body" style="padding-top:165px;">\\n              <h5 class="card-title" style="zoom: 1.5; ">${post.post_title}</h5>\\n              <p class="card-text" style=" zoom: 1.4;">${post.post_content}</p>\\n            <span class="card-poster">By: ${post.post_author}<br/><br/></span>\\n            <a href="#" v-on:click="go_detail(post._idx)" style=" zoom: 1.7; background-color:#58C5E4; border-color:#58C5E4;" class="btn btn-primary">Explore</a>\\n              <span v-if="user_email === post.post_author" class="fa fa-trash-o" v-on:click="delete_post(post._idx)"> </span>\\n            </div>\\n            </div>\\n\\n        </div>\\n        </div>\\n          </div>\\n        </div>\\n\\n\\n    <div v-if="page === 3">\\n      <span style="font-family: SourceHanSansSC-Bold; font-size: 28px; color: #58C5E4; letter-spacing: 2px;">\\n      Profile\\n      </span>\\n       <!-- <div v-if="profile.status === 0">There are no profile information. Please add.</div> -->\\n       <button class="btn btn-primary" style="background-color:#58C5E4; border-color:#58C5E4; zoom:1.5"  v-on:click="page=1">Home</button>\\n\\n      <div v-if="usrediting === 0">\\n\\n      <div id="usr_profile" style="padding-top:5%">\\n\\n      <div class="d-inline" v-for="usr in usr_list" style="padding-right:50px; padding-bottom:100px">\\n         <!-- <div v-if="user_email === usr.usr_email">  -->\\n            <div class="usr_profile" style="width: 28rem; height:42rem;">\\n          <img class="usr_profile-img" src="https://us.123rf.com/450wm/tuktukdesign/tuktukdesign1606/tuktukdesign160600119/59070200-user-icon-man-profile-businessman-avatar-person-icon-in-vector-illustration.jpg" alt="profile image cap" style = "width: 5rem; height:7rem;"/>\\n            <div class="card-body" style="padding-top:165px;">\\n              <div class="usr-name" style="zoom: 1.8; ">${usr.usr_name}</div>\\n              <div class="usr-major" style=" zoom: 1.6;">${usr.usr_major}</div>\\n              <div class="usr-school" style=" zoom: 1.6;">${usr.usr_school}</div>\\n               <div class="usr-email" style=" zoom: 1.6;">${usr.usr_email}</div>\\n              <div class="usr-experience" style=" zoom: 1.4;">${usr.usr_experience}</div>\\n        <!-- </div> -->\\n        </div>\\n        </div>\\n        </div>\\n          </div>\\n\\n\\n      <button class="btn btn-primary" style="background-color:#58C5E4; border-color:#58C5E4; zoom:1.5"  v-on:click="toggle_usrform">Edit profile</button>\\n      </div>\\n\\n\\n      <div v-if="usrediting === 1">\\n      <div id="edit_profile">\\n        <div style="padding-left:10%; width:90%" >\\n\\n      <label class="form-hint">Name</label>\\n      <textarea type="text" v-model="usr_name" placeholder="Enter your name"\\n      class="md-textarea form-control" rows="1" style="border-color:#58C5E4;font-size:14px"\\n      ></textarea>\\n\\n      <label class="form-hint">Major</label>\\n      <textarea type="text" v-model="usr_major"id="lname" name="lastname" placeholder="Enter your major" class="md-textarea form-control" rows="1" style="border-color:#58C5E4;font-size:14px"></textarea>\\n\\n\\n      <label class="form-hint">School</label>\\n      <textarea type="text" v-model="usr_school" id="lname" name="lastname" placeholder="Enter your school" class="md-textarea form-control"\\n      style="border-color:#58C5E4;font-size:14px; height:100px"></textarea>\\n\\n      <label class="form-hint">Experience</label>\\n      <textarea type="text" v-model="usr_experience" id="lname" name="lastname" placeholder="Enter your experience" class="md-textarea form-control"\\n      style="border-color:#58C5E4;font-size:14px; height:100px"></textarea>\\n\\n      <div style="padding-top:12px;">\\n      <button id="add-post" style=" zoom: 1.7; background-color:#58C5E4; border-color:#58C5E4;" v-on:click="add_usr">Submit</button>\\n      </div>\\n      </div>\\n\\n      </div>\\n      </div>\\n    </div>\\n        <!-- end of page1 -->\\n      </div>\\n      </div>\\n\\n      </div>\\n    </div>\\n</div>\\n\\n<script src="\', escape=False)\nresponse.write(URL(\'static\', \'js/default_index.js\'))\nresponse.write(\'"></script>\\n\', escape=False)\nresponse.write(\'\\n    </main>\\n    <footer class="black">\\n      \\n      <div class="container padded max900">\\n        <div class="fill" style="color:white; font-family: SourceHanSansSC-Bold;">\\n          UI/Front End developer: Zeyun Huang<br/>\\n          Backend Support: Yang Chen, Chris Shao\\n        </div>\\n      </div>\\n    </footer>\\n  </body>\\n  <script src="\', escape=False)\nresponse.write(URL(\'static\',\'js/marked.min.js\'))\nresponse.write(\'"></script>\\n  <script src="\', escape=False)\nresponse.write(URL(\'static\',\'js/vue.min.js\'))\nresponse.write(\'"></script>\\n  \', escape=False)\nresponse.write("\\n  <script>\\n    jQuery(\'.social a\').each(function(){var t=jQuery(this); t.attr(\'href\',t.attr(\'href\').replace(\'{url}\',encodeURIComponent(window.location.href)));});\\n  </script>\\n</html>\\n", escape=False)'
p7
sS'snapshot'
p8
(dp9
S'exception'
p10
(dp11
S'__getslice__'
p12
S"<method-wrapper '__getslice__' of exceptions.NameError object>"
p13
sS'__str__'
p14
S"<method-wrapper '__str__' of exceptions.NameError object>"
p15
sS'__reduce__'
p16
S'<built-in method __reduce__ of exceptions.NameError object>'
p17
sS'__dict__'
p18
S'{}'
p19
sS'message'
p20
S'"name \'post\' is not defined"'
p21
sS'__sizeof__'
p22
S'<built-in method __sizeof__ of exceptions.NameError object>'
p23
sS'__init__'
p24
S"<method-wrapper '__init__' of exceptions.NameError object>"
p25
sS'__setattr__'
p26
S"<method-wrapper '__setattr__' of exceptions.NameError object>"
p27
sS'__reduce_ex__'
p28
S'<built-in method __reduce_ex__ of exceptions.NameError object>'
p29
sS'__new__'
p30
S'<built-in method __new__ of type object>'
p31
sS'__format__'
p32
S'<built-in method __format__ of exceptions.NameError object>'
p33
sS'__class__'
p34
S"<type 'exceptions.NameError'>"
p35
sS'__doc__'
p36
S"'Name not found globally.'"
p37
sS'__getitem__'
p38
S"<method-wrapper '__getitem__' of exceptions.NameError object>"
p39
sS'__setstate__'
p40
S'<built-in method __setstate__ of exceptions.NameError object>'
p41
sS'__getattribute__'
p42
S"<method-wrapper '__getattribute__' of exceptions.NameError object>"
p43
sS'args'
p44
S'("name \'post\' is not defined",)'
p45
sS'__subclasshook__'
p46
S'<built-in method __subclasshook__ of type object>'
p47
sS'__unicode__'
p48
S'<built-in method __unicode__ of exceptions.NameError object>'
p49
sS'__delattr__'
p50
S"<method-wrapper '__delattr__' of exceptions.NameError object>"
p51
sS'__repr__'
p52
S"<method-wrapper '__repr__' of exceptions.NameError object>"
p53
sS'__hash__'
p54
S"<method-wrapper '__hash__' of exceptions.NameError object>"
p55
ssS'evalue'
p56
S"name 'post' is not defined"
p57
sS'request'
p58
cgluon.html
XML_unpickle
p59
(S's\xdd^\x00\x00<div><table><tr><td style="font-weight:bold;vertical-align:top;">ajax</td><td style="vertical-align:top;">:</td><td><div>False</div></td></tr><tr><td style="font-weight:bold;vertical-align:top;">application</td><td style="vertical-align:top;">:</td><td><div>startup</div></td></tr><tr><td style="font-weight:bold;vertical-align:top;">args</td><td style="vertical-align:top;">:</td><td><div><table></table></div></td></tr><tr><td style="font-weight:bold;vertical-align:top;">cid</td><td style="vertical-align:top;">:</td><td><div>None</div></td></tr><tr><td style="font-weight:bold;vertical-align:top;">client</td><td style="vertical-align:top;">:</td><td><div>127.0.0.1</div></td></tr><tr><td style="font-weight:bold;vertical-align:top;">controller</td><td style="vertical-align:top;">:</td><td><div>default</div></td></tr><tr><td style="font-weight:bold;vertical-align:top;">cookies</td><td style="vertical-align:top;">:</td><td><div><table><tr><td style="font-weight:bold;vertical-align:top;">session_id_admin</td><td style="vertical-align:top;">:</td><td><div>127.0.0.1-077dd9e5-ce6e-464f-8cc3-cd944b27734b<table><tr><td style="font-weight:bold;vertical-align:top;">comment</td><td style="vertical-align:top;">:</td><td><div></div></td></tr><tr><td style="font-weight:bold;vertical-align:top;">domain</td><td style="vertical-align:top;">:</td><td><div></div></td></tr><tr><td style="font-weight:bold;vertical-align:top;">expires</td><td style="vertical-align:top;">:</td><td><div></div></td></tr><tr><td style="font-weight:bold;vertical-align:top;">httponly</td><td style="vertical-align:top;">:</td><td><div></div></td></tr><tr><td style="font-weight:bold;vertical-align:top;">max-age</td><td style="vertical-align:top;">:</td><td><div></div></td></tr><tr><td style="font-weight:bold;vertical-align:top;">path</td><td style="vertical-align:top;">:</td><td><div></div></td></tr><tr><td style="font-weight:bold;vertical-align:top;">secure</td><td style="vertical-align:top;">:</td><td><div></div></td></tr><tr><td style="font-weight:bold;vertical-align:top;">version</td><td style="vertical-align:top;">:</td><td><div></div></td></tr></table></div></td></tr><tr><td style="font-weight:bold;vertical-align:top;">session_id_startup</td><td style="vertical-align:top;">:</td><td><div>24:a621b5fc-83b7-4189-9b60-adc9d08471e7<table><tr><td style="font-weight:bold;vertical-align:top;">comment</td><td style="vertical-align:top;">:</td><td><div></div></td></tr><tr><td style="font-weight:bold;vertical-align:top;">domain</td><td style="vertical-align:top;">:</td><td><div></div></td></tr><tr><td style="font-weight:bold;vertical-align:top;">expires</td><td style="vertical-align:top;">:</td><td><div></div></td></tr><tr><td style="font-weight:bold;vertical-align:top;">httponly</td><td style="vertical-align:top;">:</td><td><div></div></td></tr><tr><td style="font-weight:bold;vertical-align:top;">max-age</td><td style="vertical-align:top;">:</td><td><div></div></td></tr><tr><td style="font-weight:bold;vertical-align:top;">path</td><td style="vertical-align:top;">:</td><td><div></div></td></tr><tr><td style="font-weight:bold;vertical-align:top;">secure</td><td style="vertical-align:top;">:</td><td><div></div></td></tr><tr><td style="font-weight:bold;vertical-align:top;">version</td><td style="vertical-align:top;">:</td><td><div></div></td></tr></table></div></td></tr><tr><td style="font-weight:bold;vertical-align:top;">session_id_welcome</td><td style="vertical-align:top;">:</td><td><div>127.0.0.1-aac6b096-e9e2-4327-a899-ca1872e6c57b<table><tr><td style="font-weight:bold;vertical-align:top;">comment</td><td style="vertical-align:top;">:</td><td><div></div></td></tr><tr><td style="font-weight:bold;vertical-align:top;">domain</td><td style="vertical-align:top;">:</td><td><div></div></td></tr><tr><td style="font-weight:bold;vertical-align:top;">expires</td><td style="vertical-align:top;">:</td><td><div></div></td></tr><tr><td style="font-weight:bold;vertical-align:top;">httponly</td><td style="vertical-align:top;">:</td><td><div></div></td></tr><tr><td style="font-weight:bold;vertical-align:top;">max-age</td><td style="vertical-align:top;">:</td><td><div></div></td></tr><tr><td style="font-weight:bold;vertical-align:top;">path</td><td style="vertical-align:top;">:</td><td><div></div></td></tr><tr><td style="font-weight:bold;vertical-align:top;">secure</td><td style="vertical-align:top;">:</td><td><div></div></td></tr><tr><td style="font-weight:bold;vertical-align:top;">version</td><td style="vertical-align:top;">:</td><td><div></div></td></tr></table></div></td></tr></table></div></td></tr><tr><td style="font-weight:bold;vertical-align:top;">env</td><td style="vertical-align:top;">:</td><td><div><table><tr><td style="font-weight:bold;vertical-align:top;">HTTP_ACCEPT</td><td style="vertical-align:top;">:</td><td><div>text/html,application/xhtml+xml,application/xml;q=0.9,image/webp,image/apng,*/*;q=0.8</div></td></tr><tr><td style="font-weight:bold;vertical-align:top;">HTTP_ACCEPT_ENCODING</td><td style="vertical-align:top;">:</td><td><div>gzip, deflate, br</div></td></tr><tr><td style="font-weight:bold;vertical-align:top;">HTTP_ACCEPT_LANGUAGE</td><td style="vertical-align:top;">:</td><td><div>zh-CN,zh;q=0.9</div></td></tr><tr><td style="font-weight:bold;vertical-align:top;">HTTP_CACHE_CONTROL</td><td style="vertical-align:top;">:</td><td><div>no-cache</div></td></tr><tr><td style="font-weight:bold;vertical-align:top;">HTTP_CONNECTION</td><td style="vertical-align:top;">:</td><td><div>keep-alive</div></td></tr><tr><td style="font-weight:bold;vertical-align:top;">HTTP_COOKIE</td><td style="vertical-align:top;">:</td><td><div>session_id_admin=127.0.0.1-077dd9e5-ce6e-464f-8cc3-cd944b27734b; session_id_startup=&quot;24:a621b5fc-83b7-4189-9b60-adc9d08471e7&quot;; session_id_welcome=127.0.0.1-aac6b096-e9e2-4327-a899-ca1872e6c57b</div></td></tr><tr><td style="font-weight:bold;vertical-align:top;">HTTP_HOST</td><td style="vertical-align:top;">:</td><td><div>127.0.0.1:8000</div></td></tr><tr><td style="font-weight:bold;vertical-align:top;">HTTP_PRAGMA</td><td style="vertical-align:top;">:</td><td><div>no-cache</div></td></tr><tr><td style="font-weight:bold;vertical-align:top;">HTTP_UPGRADE_INSECURE_REQUESTS</td><td style="vertical-align:top;">:</td><td><div>1</div></td></tr><tr><td style="font-weight:bold;vertical-align:top;">HTTP_USER_AGENT</td><td style="vertical-align:top;">:</td><td><div>Mozilla/5.0 (Windows NT 10.0; Win64; x64) AppleWebKit/537.36 (KHTML, like Gecko) Chrome/71.0.3578.80 Safari/537.36</div></td></tr><tr><td style="font-weight:bold;vertical-align:top;">PATH_INFO</td><td style="vertical-align:top;">:</td><td><div>/startup/default/index</div></td></tr><tr><td style="font-weight:bold;vertical-align:top;">QUERY_STRING</td><td style="vertical-align:top;">:</td><td><div></div></td></tr><tr><td style="font-weight:bold;vertical-align:top;">REMOTE_ADDR</td><td style="vertical-align:top;">:</td><td><div>127.0.0.1</div></td></tr><tr><td style="font-weight:bold;vertical-align:top;">REMOTE_PORT</td><td style="vertical-align:top;">:</td><td><div>6606</div></td></tr><tr><td style="font-weight:bold;vertical-align:top;">REQUEST_METHOD</td><td style="vertical-align:top;">:</td><td><div>GET</div></td></tr><tr><td style="font-weight:bold;vertical-align:top;">SCRIPT_NAME</td><td style="vertical-align:top;">:</td><td><div></div></td></tr><tr><td style="font-weight:bold;vertical-align:top;">SERVER_NAME</td><td style="vertical-align:top;">:</td><td><div>DESKTOP-RR31VQ1</div></td></tr><tr><td style="font-weight:bold;vertical-align:top;">SERVER_PORT</td><td style="vertical-align:top;">:</td><td><div>8000</div></td></tr><tr><td style="font-weight:bold;vertical-align:top;">SERVER_PROTOCOL</td><td style="vertical-align:top;">:</td><td><div>HTTP/1.1</div></td></tr><tr><td style="font-weight:bold;vertical-align:top;">SERVER_SOFTWARE</td><td style="vertical-align:top;">:</td><td><div>Rocket 1.2.6</div></td></tr><tr><td style="font-weight:bold;vertical-align:top;">app_folders</td><td style="vertical-align:top;">:</td><td><div>set([&#x27;D:\\\\Development\\\\web\\\\web2py\\\\applications\\\\admin\\\\&#x27;, &#x27;D:\\\\Development\\\\web\\\\web2py\\\\applications\\\\welcome\\\\&#x27;, &#x27;D:\\\\Development\\\\web\\\\web2py\\\\applications\\\\startup\\\\&#x27;])</div></td></tr><tr><td style="font-weight:bold;vertical-align:top;">applications_parent</td><td style="vertical-align:top;">:</td><td><div>D:\\Development\\web\\web2py</div></td></tr><tr><td style="font-weight:bold;vertical-align:top;">cmd_args</td><td style="vertical-align:top;">:</td><td><div><table></table></div></td></tr><tr><td style="font-weight:bold;vertical-align:top;">cmd_options</td><td style="vertical-align:top;">:</td><td><div>&lt;Values at 0x13a370c8: {&#x27;verbose&#x27;: False, &#x27;ip&#x27;: &#x27;127.0.0.1&#x27;, &#x27;debuglevel&#x27;: 30, &#x27;with_scheduler&#x27;: False, &#x27;shutdown_timeout&#x27;: 5, &#x27;taskbar&#x27;: False, &#x27;with_coverage&#x27;: False, &#x27;pid_filename&#x27;: &#x27;httpserver.pid&#x27;, &#x27;maxthreads&#x27;: None, &#x27;softcron&#x27;: False, &#x27;server_name&#x27;: &#x27;DESKTOP-RR31VQ1&#x27;, &#x27;bpython&#x27;: False, &#x27;nogui&#x27;: False, &#x27;port&#x27;: 8000, &#x27;print_errors&#x27;: False, &#x27;extcron&#x27;: False, &#x27;runcron&#x27;: False, &#x27;run_system_tests&#x27;: False, &#x27;test&#x27;: None, &#x27;folder&#x27;: &#x27;D:\\\\Development\\\\web\\\\web2py&#x27;, &#x27;config&#x27;: &#x27;&#x27;, &#x27;minthreads&#x27;: None, &#x27;shell&#x27;: None, &#x27;run&#x27;: &#x27;&#x27;, &#x27;log_filename&#x27;: &#x27;httpserver.log&#x27;, &#x27;profiler_dir&#x27;: None, &#x27;args&#x27;: [&#x27;&#x27;], &#x27;socket_timeout&#x27;: 5, &#x27;ssl_ca_certificate&#x27;: None, &#x27;scheduler&#x27;: None, &#x27;interfaces&#x27;: None, &#x27;ssl_private_key&#x27;: &#x27;&#x27;, &#x27;gae&#x27;: None, &#x27;password&#x27;: &#x27;******&#x27;, &#x27;request_queue_size&#x27;: 5, &#x27;ssl_certificate&#x27;: &#x27;&#x27;, &#x27;cronjob&#x27;: False, &#x27;numthreads&#x27;: None, &#x27;quiet&#x27;: False, &#x27;import_models&#x27;: False, &#x27;timeout&#x27;: 10, &#x27;plain&#x27;: False, &#x27;nobanner&#x27;: False}&gt;</div></td></tr><tr><td style="font-weight:bold;vertical-align:top;">db_sessions</td><td style="vertical-align:top;">:</td><td><div>set([&#x27;startup&#x27;])</div></td></tr><tr><td style="font-weight:bold;vertical-align:top;">debugging</td><td style="vertical-align:top;">:</td><td><div>False</div></td></tr><tr><td style="font-weight:bold;vertical-align:top;">gluon_parent</td><td style="vertical-align:top;">:</td><td><div>D:\\Development\\web\\web2py</div></td></tr><tr><td style="font-weight:bold;vertical-align:top;">http_accept</td><td style="vertical-align:top;">:</td><td><div>text/html,application/xhtml+xml,application/xml;q=0.9,image/webp,image/apng,*/*;q=0.8</div></td></tr><tr><td style="font-weight:bold;vertical-align:top;">http_accept_encoding</td><td style="vertical-align:top;">:</td><td><div>gzip, deflate, br</div></td></tr><tr><td style="font-weight:bold;vertical-align:top;">http_accept_language</td><td style="vertical-align:top;">:</td><td><div>zh-CN,zh;q=0.9</div></td></tr><tr><td style="font-weight:bold;vertical-align:top;">http_cache_control</td><td style="vertical-align:top;">:</td><td><div>no-cache</div></td></tr><tr><td style="font-weight:bold;vertical-align:top;">http_connection</td><td style="vertical-align:top;">:</td><td><div>keep-alive</div></td></tr><tr><td style="font-weight:bold;vertical-align:top;">http_cookie</td><td style="vertical-align:top;">:</td><td><div>session_id_admin=127.0.0.1-077dd9e5-ce6e-464f-8cc3-cd944b27734b; session_id_startup=&quot;24:a621b5fc-83b7-4189-9b60-adc9d08471e7&quot;; session_id_welcome=127.0.0.1-aac6b096-e9e2-4327-a899-ca1872e6c57b</div></td></tr><tr><td style="font-weight:bold;vertical-align:top;">http_host</td><td style="vertical-align:top;">:</td><td><div>127.0.0.1:8000</div></td></tr><tr><td style="font-weight:bold;vertical-align:top;">http_pragma</td><td style="vertical-align:top;">:</td><td><div>no-cache</div></td></tr><tr><td style="font-weight:bold;vertical-align:top;">http_upgrade_insecure_requests</td><td style="vertical-align:top;">:</td><td><div>1</div></td></tr><tr><td style="font-weight:bold;vertical-align:top;">http_user_agent</td><td style="vertical-align:top;">:</td><td><div>Mozilla/5.0 (Windows NT 10.0; Win64; x64) AppleWebKit/537.36 (KHTML, like Gecko) Chrome/71.0.3578.80 Safari/537.36</div></td></tr><tr><td style="font-weight:bold;vertical-align:top;">is_jython</td><td style="vertical-align:top;">:</td><td><div>False</div></td></tr><tr><td style="font-weight:bold;vertical-align:top;">is_py2</td><td style="vertical-align:top;">:</td><td><div>True</div></td></tr><tr><td style="font-weight:bold;vertical-align:top;">is_pypy</td><td style="vertical-align:top;">:</td><td><div>False</div></td></tr><tr><td style="font-weight:bold;vertical-align:top;">is_source</td><td style="vertical-align:top;">:</td><td><div>True</div></td></tr><tr><td style="font-weight:bold;vertical-align:top;">local_hosts</td><td style="vertical-align:top;">:</td><td><div><table><tr><td><div>DESKTOP-RR31VQ1</div></td></tr><tr><td><div>fe80::f147:f2b:2b77:2173%20</div></td></tr><tr><td><div>::ffff:127.0.0.1</div></td></tr><tr><td><div>::1</div></td></tr><tr><td><div>192.168.202.151</div></td></tr><tr><td><div>127.0.0.1</div></td></tr></table></div></td></tr><tr><td style="font-weight:bold;vertical-align:top;">path_info</td><td style="vertical-align:top;">:</td><td><div>/startup/default/index</div></td></tr><tr><td style="font-weight:bold;vertical-align:top;">query_string</td><td style="vertical-align:top;">:</td><td><div></div></td></tr><tr><td style="font-weight:bold;vertical-align:top;">remote_addr</td><td style="vertical-align:top;">:</td><td><div>127.0.0.1</div></td></tr><tr><td style="font-weight:bold;vertical-align:top;">remote_port</td><td style="vertical-align:top;">:</td><td><div>6606</div></td></tr><tr><td style="font-weight:bold;vertical-align:top;">request_method</td><td style="vertical-align:top;">:</td><td><div>GET</div></td></tr><tr><td style="font-weight:bold;vertical-align:top;">request_uri</td><td style="vertical-align:top;">:</td><td><div>/startup/default/index</div></td></tr><tr><td style="font-weight:bold;vertical-align:top;">script_name</td><td style="vertical-align:top;">:</td><td><div></div></td></tr><tr><td style="font-weight:bold;vertical-align:top;">server_name</td><td style="vertical-align:top;">:</td><td><div>DESKTOP-RR31VQ1</div></td></tr><tr><td style="font-weight:bold;vertical-align:top;">server_port</td><td style="vertical-align:top;">:</td><td><div>8000</div></td></tr><tr><td style="font-weight:bold;vertical-align:top;">server_protocol</td><td style="vertical-align:top;">:</td><td><div>HTTP/1.1</div></td></tr><tr><td style="font-weight:bold;vertical-align:top;">server_software</td><td style="vertical-align:top;">:</td><td><div>Rocket 1.2.6</div></td></tr><tr><td style="font-weight:bold;vertical-align:top;">web2py_path</td><td style="vertical-align:top;">:</td><td><div>D:\\Development\\web\\web2py</div></td></tr><tr><td style="font-weight:bold;vertical-align:top;">web2py_version</td><td style="vertical-align:top;">:</td><td><div>2.17.1-stable+timestamp.2018.08.06.01.02.56</div></td></tr><tr><td style="font-weight:bold;vertical-align:top;">wsgi.errors</td><td style="vertical-align:top;">:</td><td><div>&lt;open file &#x27;&lt;stderr&gt;&#x27;, mode &#x27;w&#x27; at 0x0000000002ACB150&gt;</div></td></tr><tr><td style="font-weight:bold;vertical-align:top;">wsgi.file_wrapper</td><td style="vertical-align:top;">:</td><td><div>&lt;class wsgiref.util.FileWrapper at 0x00000000139DCD68&gt;</div></td></tr><tr><td style="font-weight:bold;vertical-align:top;">wsgi.input</td><td style="vertical-align:top;">:</td><td><div>&lt;socket._fileobject object at 0x0000000020DAAB88&gt;</div></td></tr><tr><td style="font-weight:bold;vertical-align:top;">wsgi.multiprocess</td><td style="vertical-align:top;">:</td><td><div>False</div></td></tr><tr><td style="font-weight:bold;vertical-align:top;">wsgi.multithread</td><td style="vertical-align:top;">:</td><td><div>True</div></td></tr><tr><td style="font-weight:bold;vertical-align:top;">wsgi.run_once</td><td style="vertical-align:top;">:</td><td><div>False</div></td></tr><tr><td style="font-weight:bold;vertical-align:top;">wsgi.url_scheme</td><td style="vertical-align:top;">:</td><td><div>http</div></td></tr><tr><td style="font-weight:bold;vertical-align:top;">wsgi.version</td><td style="vertical-align:top;">:</td><td><div><table><tr><td><div>1</div></td></tr><tr><td><div>0</div></td></tr></table></div></td></tr><tr><td style="font-weight:bold;vertical-align:top;">wsgi_errors</td><td style="vertical-align:top;">:</td><td><div>&lt;open file &#x27;&lt;stderr&gt;&#x27;, mode &#x27;w&#x27; at 0x0000000002ACB150&gt;</div></td></tr><tr><td style="font-weight:bold;vertical-align:top;">wsgi_file_wrapper</td><td style="vertical-align:top;">:</td><td><div>&lt;class wsgiref.util.FileWrapper at 0x00000000139DCD68&gt;</div></td></tr><tr><td style="font-weight:bold;vertical-align:top;">wsgi_input</td><td style="vertical-align:top;">:</td><td><div>&lt;socket._fileobject object at 0x0000000020DAAB88&gt;</div></td></tr><tr><td style="font-weight:bold;vertical-align:top;">wsgi_multiprocess</td><td style="vertical-align:top;">:</td><td><div>False</div></td></tr><tr><td style="font-weight:bold;vertical-align:top;">wsgi_multithread</td><td style="vertical-align:top;">:</td><td><div>True</div></td></tr><tr><td style="font-weight:bold;vertical-align:top;">wsgi_run_once</td><td style="vertical-align:top;">:</td><td><div>False</div></td></tr><tr><td style="font-weight:bold;vertical-align:top;">wsgi_url_scheme</td><td style="vertical-align:top;">:</td><td><div>http</div></td></tr><tr><td style="font-weight:bold;vertical-align:top;">wsgi_version</td><td style="vertical-align:top;">:</td><td><div><table><tr><td><div>1</div></td></tr><tr><td><div>0</div></td></tr></table></div></td></tr></table></div></td></tr><tr><td style="font-weight:bold;vertical-align:top;">extension</td><td style="vertical-align:top;">:</td><td><div>html</div></td></tr><tr><td style="font-weight:bold;vertical-align:top;">folder</td><td style="vertical-align:top;">:</td><td><div>D:\\Development\\web\\web2py\\applications\\startup\\</div></td></tr><tr><td style="font-weight:bold;vertical-align:top;">function</td><td style="vertical-align:top;">:</td><td><div>index</div></td></tr><tr><td style="font-weight:bold;vertical-align:top;">global_settings</td><td style="vertical-align:top;">:</td><td><div><table><tr><td style="font-weight:bold;vertical-align:top;">app_folders</td><td style="vertical-align:top;">:</td><td><div>set([&#x27;D:\\\\Development\\\\web\\\\web2py\\\\applications\\\\admin\\\\&#x27;, &#x27;D:\\\\Development\\\\web\\\\web2py\\\\applications\\\\welcome\\\\&#x27;, &#x27;D:\\\\Development\\\\web\\\\web2py\\\\applications\\\\startup\\\\&#x27;])</div></td></tr><tr><td style="font-weight:bold;vertical-align:top;">applications_parent</td><td style="vertical-align:top;">:</td><td><div>D:\\Development\\web\\web2py</div></td></tr><tr><td style="font-weight:bold;vertical-align:top;">cmd_args</td><td style="vertical-align:top;">:</td><td><div><table></table></div></td></tr><tr><td style="font-weight:bold;vertical-align:top;">cmd_options</td><td style="vertical-align:top;">:</td><td><div>&lt;Values at 0x13a370c8: {&#x27;verbose&#x27;: False, &#x27;ip&#x27;: &#x27;127.0.0.1&#x27;, &#x27;debuglevel&#x27;: 30, &#x27;with_scheduler&#x27;: False, &#x27;shutdown_timeout&#x27;: 5, &#x27;taskbar&#x27;: False, &#x27;with_coverage&#x27;: False, &#x27;pid_filename&#x27;: &#x27;httpserver.pid&#x27;, &#x27;maxthreads&#x27;: None, &#x27;softcron&#x27;: False, &#x27;server_name&#x27;: &#x27;DESKTOP-RR31VQ1&#x27;, &#x27;bpython&#x27;: False, &#x27;nogui&#x27;: False, &#x27;port&#x27;: 8000, &#x27;print_errors&#x27;: False, &#x27;extcron&#x27;: False, &#x27;runcron&#x27;: False, &#x27;run_system_tests&#x27;: False, &#x27;test&#x27;: None, &#x27;folder&#x27;: &#x27;D:\\\\Development\\\\web\\\\web2py&#x27;, &#x27;config&#x27;: &#x27;&#x27;, &#x27;minthreads&#x27;: None, &#x27;shell&#x27;: None, &#x27;run&#x27;: &#x27;&#x27;, &#x27;log_filename&#x27;: &#x27;httpserver.log&#x27;, &#x27;profiler_dir&#x27;: None, &#x27;args&#x27;: [&#x27;&#x27;], &#x27;socket_timeout&#x27;: 5, &#x27;ssl_ca_certificate&#x27;: None, &#x27;scheduler&#x27;: None, &#x27;interfaces&#x27;: None, &#x27;ssl_private_key&#x27;: &#x27;&#x27;, &#x27;gae&#x27;: None, &#x27;password&#x27;: &#x27;******&#x27;, &#x27;request_queue_size&#x27;: 5, &#x27;ssl_certificate&#x27;: &#x27;&#x27;, &#x27;cronjob&#x27;: False, &#x27;numthreads&#x27;: None, &#x27;quiet&#x27;: False, &#x27;import_models&#x27;: False, &#x27;timeout&#x27;: 10, &#x27;plain&#x27;: False, &#x27;nobanner&#x27;: False}&gt;</div></td></tr><tr><td style="font-weight:bold;vertical-align:top;">db_sessions</td><td style="vertical-align:top;">:</td><td><div>set([&#x27;startup&#x27;])</div></td></tr><tr><td style="font-weight:bold;vertical-align:top;">debugging</td><td style="vertical-align:top;">:</td><td><div>False</div></td></tr><tr><td style="font-weight:bold;vertical-align:top;">gluon_parent</td><td style="vertical-align:top;">:</td><td><div>D:\\Development\\web\\web2py</div></td></tr><tr><td style="font-weight:bold;vertical-align:top;">is_jython</td><td style="vertical-align:top;">:</td><td><div>False</div></td></tr><tr><td style="font-weight:bold;vertical-align:top;">is_py2</td><td style="vertical-align:top;">:</td><td><div>True</div></td></tr><tr><td style="font-weight:bold;vertical-align:top;">is_pypy</td><td style="vertical-align:top;">:</td><td><div>False</div></td></tr><tr><td style="font-weight:bold;vertical-align:top;">is_source</td><td style="vertical-align:top;">:</td><td><div>True</div></td></tr><tr><td style="font-weight:bold;vertical-align:top;">local_hosts</td><td style="vertical-align:top;">:</td><td><div><table><tr><td><div>DESKTOP-RR31VQ1</div></td></tr><tr><td><div>fe80::f147:f2b:2b77:2173%20</div></td></tr><tr><td><div>::ffff:127.0.0.1</div></td></tr><tr><td><div>::1</div></td></tr><tr><td><div>192.168.202.151</div></td></tr><tr><td><div>127.0.0.1</div></td></tr></table></div></td></tr><tr><td style="font-weight:bold;vertical-align:top;">web2py_version</td><td style="vertical-align:top;">:</td><td><div>2.17.1-stable+timestamp.2018.08.06.01.02.56</div></td></tr></table></div></td></tr><tr><td style="font-weight:bold;vertical-align:top;">is_https</td><td style="vertical-align:top;">:</td><td><div>False</div></td></tr><tr><td style="font-weight:bold;vertical-align:top;">is_local</td><td style="vertical-align:top;">:</td><td><div>True</div></td></tr><tr><td style="font-weight:bold;vertical-align:top;">is_restful</td><td style="vertical-align:top;">:</td><td><div>False</div></td></tr><tr><td style="font-weight:bold;vertical-align:top;">is_scheduler</td><td style="vertical-align:top;">:</td><td><div>False</div></td></tr><tr><td style="font-weight:bold;vertical-align:top;">is_shell</td><td style="vertical-align:top;">:</td><td><div>False</div></td></tr><tr><td style="font-weight:bold;vertical-align:top;">method</td><td style="vertical-align:top;">:</td><td><div>GET</div></td></tr><tr><td style="font-weight:bold;vertical-align:top;">now</td><td style="vertical-align:top;">:</td><td><div>datetime.datetime(2018, 12, 12, 17, 11, 9, 39000)</div></td></tr><tr><td style="font-weight:bold;vertical-align:top;">raw_args</td><td style="vertical-align:top;">:</td><td><div></div></td></tr><tr><td style="font-weight:bold;vertical-align:top;">raw_extension</td><td style="vertical-align:top;">:</td><td><div>None</div></td></tr><tr><td style="font-weight:bold;vertical-align:top;">url</td><td style="vertical-align:top;">:</td><td><div>/startup/default/index</div></td></tr><tr><td style="font-weight:bold;vertical-align:top;">utcnow</td><td style="vertical-align:top;">:</td><td><div>datetime.datetime(2018, 12, 12, 9, 11, 9, 39000)</div></td></tr><tr><td style="font-weight:bold;vertical-align:top;">wsgi</td><td style="vertical-align:top;">:</td><td><div>&lt;gluon.main.LazyWSGI object at 0x0000000020CE0D68&gt;</div></td></tr></table></div>'
tRp60
sS'frames'
p61
(lp62
(dp63
S'file'
p64
S'D:\\Development\\web\\web2py\\gluon\\restricted.py'
p65
sS'dump'
p66
(dp67
S'environment'
p68
S"{'A': <class 'gluon.html.A'>, 'ANY_OF': <class 'gluon.validators.ANY_OF'>, 'ASSIGNJS': <function ASSIGNJS>, 'AppConfig': <function AppConfig>, 'Auth': <class 'gluon.tools.Auth'>, 'B': <class 'gluon.html.B'>, 'BEAUTIFY': <class 'gluon.html.BEAUTIFY'>, 'BODY': <class 'gluon.html.BODY'>, 'BR': <class 'gluon.html.BR'>, 'BUTTON': <class 'gluon.html.BUTTON'>, ...}"
p69
sS'ccode'
p70
S'<code object <module> at 0000000020F32EB0, file ...ations\\startup\\views\\default/index.html", line 1>'
p71
ssS'lnum'
p72
I219
sS'lines'
p73
(dp74
I214
S'    if environment is None:'
p75
sI215
S'        environment = {}'
p76
sI216
S"    environment['__file__'] = layer"
p77
sI217
S"    environment['__name__'] = '__restricted__'"
p78
sI218
S'    try:'
p79
sI219
S'        exec(ccode, environment)'
p80
sI220
S'    except HTTP:'
p81
sI221
S'        raise'
p82
sI222
S'    except RestrictedError:'
p83
sI223
S'        # do not encapsulate (obfuscate) the original RestrictedError'
p84
ssS'call'
p85
S'(ccode=<code object <module> at 0000000020F32EB0, file ...ations\\startup\\views\\default/index.html", line 1>, environment={\'A\': <class \'gluon.html.A\'>, \'ANY_OF\': <class \'gluon.validators.ANY_OF\'>, \'ASSIGNJS\': <function ASSIGNJS>, \'AppConfig\': <function AppConfig>, \'Auth\': <class \'gluon.tools.Auth\'>, \'B\': <class \'gluon.html.B\'>, \'BEAUTIFY\': <class \'gluon.html.BEAUTIFY\'>, \'BODY\': <class \'gluon.html.BODY\'>, \'BR\': <class \'gluon.html.BR\'>, \'BUTTON\': <class \'gluon.html.BUTTON\'>, ...}, layer=r\'D:\\Development\\web\\web2py\\applications\\startup\\views\\default/index.html\', scode=\'response.write(\\\'<html>\\\\n  <head>\\\\n    <meta char...ef)));});\\\\n  </script>\\\\n</html>\\\\n", escape=False)\')'
p86
sS'func'
p87
S'restricted'
p88
sa(dp89
g64
S'D:\\Development\\web\\web2py\\applications\\startup\\views\\default\\index.html'
p90
sg66
(dp91
S'div'
p92
S'undefined'
p93
ssg72
I89
sg73
(dp94
I96
S"response.write(URL('static','js/vue.min.js'))"
p95
sI97
S'response.write(\'"></script>\\n  \', escape=False)'
p96
sI98
S'response.write("\\n  <script>\\n    jQuery(\'.social a\').each(function(){var t=jQuery(this); t.attr(\'href\',t.attr(\'href\').replace(\'{url}\',encodeURIComponent(window.location.href)));});\\n  </script>\\n</html>\\n", escape=False)'
p97
sI80
S'response.write(\'\\n            <ul class="menu right">\\n              <li>\\n                \', escape=False)'
p98
sI81
S"response.write(auth.navbar(mode='dropdown'))"
p99
sI82
S'response.write(\'\\n              </li>\\n            </ul>\\n          </div>\\n        </div>\\n      </div>\\n    </header> -->\\n\\n\\n      <main class="white">\\n      \\n      <span class="nav-logo" >StartUp</span>\\n      <span class="nav-logo-sub">for students</span>\\n      <div class="nav-div">\\n            <span class="nav-button" v-on:click="add_post">How it works</span>\\n            <span class="nav-button" v-on:click="add_post">Contact Us</span>\\n        \\n          <!--   <span class="nav-login"></span> -->\\n\\n              <!-- <span class="nav-login-text">My Account -->\\n\\n            <span class="nav-button">\\n            <!-- <input type="checkbox" id="menu"/> -->\\n            <!-- \', escape=False)'
p100
sI83
S"response.write(MENU(response.menu,_class='menu'))"
p101
sI84
S'response.write(\' -->\\n            <ul class="menu right">\\n              <li>\\n                \', escape=False)'
p102
sI85
S"response.write(auth.navbar(mode='dropdown'))"
p103
sI86
S'response.write(\'\\n              </li>\\n            </ul>\\n          </div> \\n      </span>\\n\\n\\n\\n    <main class="white">\\n      \', escape=False)'
p104
sI87
S"response.write('\\n\\n', escape=False)"
p105
sI88
S'response.write(\'\\n\\n\\n\\n<div class="main_content">\\n    <div id="vue-div" class="display:none">\\n\\n\\n    <div v-if="page === 0">\\n      <div class="bgimg" style="height:1000px;">\\n          <h2 style="color:white;  zoom: 2.2; font-family: SourceHanSansSC-Bold; padding-left: 10%; padding-top: 15%;">\\n          Turn sparks into flames\\n          </h3>\\n          <h7 style="color:white;  zoom: 2;font-family: SourceHanSansSC-Bold; padding-left: 10%; padding-top: 60%;">\\n          Try out the most trending platform in 2019 for students to change the world !\\n          </h7>\\n          <h7 style="color:white; font-family: SourceHanSansSC-Bold; padding-left: 30%; ">\\n          </h7>\\n\\n          <div class="card-deck" style="padding-left:11%; padding-top:140px;">\\n\\n          <div class="d-inline">\\n            <div class="card" style="width: 28rem; height:38rem;">\\n          <img class="card-img-top" style=" zoom: 1.5;" src="http://pluspng.com/img-png/png-logo-design-boldmedia-flat-logo-design-for-web-design-company-author-jeroen-van-eerden-670.png" alt="Card image cap"/>\\n          <div class="card-body" style="padding-top:165px; ">\\n          <h5 class="card-title" style=" zoom: 1.5;">TM Master</h5>\\n          <p class="card-text" style=" zoom: 1.4;">An ultimate project management tool that helps manage your team and project in the most efficient way</p>\\n          <a href="#" style=" zoom: 1.7;background-color:#58C5E4; border-color:#58C5E4; "class="btn btn-primary">Explore</a>\\n          </div>\\n          </div>\\n          </div>\\n\\n          <div class="d-inline" style="padding-left:7%">\\n          <div class="card" style="width: 28rem; height:38rem;">\\n          <img class="card-img-top" src="https://mir-s3-cdn-cf.behance.net/project_modules/disp/065e3217174739.562b6c9c486a0.png" alt="Card image cap"/>\\n          <div class="card-body" style="padding-top:165px">\\n          <h5 class="card-title" style=" zoom: 1.5;">ONAK 2.0 - Origami Canoe</h5>\\n          <p class="card-text" style=" zoom: 1.4;">We developed the ONAK 2.0 to make paddling even easier and more accessible than ever before. Our customers provided amazing feedback. </p>\\n          <a href="#" style=" zoom: 1.7; background-color:#58C5E4; border-color:#58C5E4;" class="btn btn-primary">Explore</a>\\n          </div>\\n          </div>\\n          </div>\\n\\n          <div class="d-inline" style="padding-left:7%">\\n          <div class="card" style="width: 28rem; height:38rem;">\\n          <img class="card-img-top" src="https://i.redd.it/xkmgc2a81w211.png" alt="Card image cap"/>\\n          <div class="card-body" style="padding-top:165px">\\n          <h5 class="card-title" style=" zoom: 1.5;">Hive Explorer | First Smart Insect Farm for Starters</h5>\\n          <p class="card-text" style=" zoom: 1.4;">Grow edible protein and fertilizer on food waste | Grown-Ups & Kids | Fun STEM education kit | Safe, Regulated Ecosystem</p>\\n          <a href="#" style=" zoom: 1.7; background-color:#58C5E4; border-color:#58C5E4;" class="btn btn-primary">Explore</a>\\n          </div>\\n          </div>\\n          </div>\\n          <!-- end of d-inline -->\\n\\n          </div>\\n          <!-- end of card-deck -->\\n      </div>\\n    </div>\\n<!-- end of page0 -->\\n\\n    <div v-if="page === 2">\\n      <div>\\n        <button class="btn btn-primary" style="background-color:#58C5E4; border-color:#58C5E4; zoom:1.5"  v-on:click="page=1">Home</button>\\n        <div style="padding-left: 10%; width: 95%;">\\n          <h2 style="color:#333;  zoom: 2; font-family: SourceHanSansSC-Bold; padding-top: 10%;">${detail.post_title}\\n          <span style="font-family: SourceHanSansSC-Bold;" class="badge badge-secondary">${detail.post_author}</span></h2>\\n          <h7 style="color:#666;  zoom: 2;font-family: SourceHanSansSC-Bold;padding-top: 60%;">\\n          ${detail.post_content}\\n              <!--${detail}-->\\n          </h7>\\n        </div>\\n        <div v-for="reply in detail.replies">\\n                    <hr style="margin:50px 10%;">\\n            <center style="color:#444; zoom: 2;font-family: SourceHanSansSC-Bold; text-align: center"> Replay </center>\\n                    <div style="margin:0 10%;">\\n                        <center style="color:#444; zoom: 2;font-family: SourceHanSansSC-Regular;padding-top: 22px;text-align: center">\\n                            ${reply}\\n                        </center>\\n                    </div>\\n                </div>\\n\\n        <div class="form-hint" style="margin:100px 10%; font-size:15px; color:#999">\\n            End\\n        </div>\\n\\n\\n      </div>\\n    </div>\\n<!-- End of Page2 -->\\n\\n\\n\\n    <div v-if="page === 1">\\n      <div id="add_post" v-show="form_set" style="display:none">\\n        <div style="padding-left:10%; width:90%" >\\n\\n      <label class="form-hint">Idea</label>\\n      <textarea type="text" v-model="form_title" placeholder="Enter your idea"\\n      class="md-textarea form-control" rows="1" style="border-color:#58C5E4;font-size:14px"\\n      ></textarea>\\n\\n      <label class="form-hint">Image</label>\\n            <input type="file"  @change="on_file_change" v-model="form_image"  placeholder="Enter image Url" class="md-textarea form-control"\\n                   rows="1" style="border-color:#58C5E4;font-size:14px;padding: 0;"/>\\n\\n\\n      <label class="form-hint">Description</label>\\n      <textarea type="text" v-model="form_content" id="lname" name="lastname" placeholder="Enter idea description" class="md-textarea form-control"\\n      style="border-color:#58C5E4;font-size:14px; height:100px"></textarea>\\n      <div style="padding-top:12px;">\\n      <button id="add-post" style=" zoom: 1.7; background-color:#58C5E4; border-color:#58C5E4;" v-on:click="add_post">Submit</button>\\n      </div>\\n      </div>\\n\\n      </div>\\n\\n      <div style="padding-left: 9%; padding-top:3%">\\n      <span style="font-family: SourceHanSansSC-Bold; font-size: 32px; color: #58C5E4; letter-spacing: 2px;">\\n      Trending\\n      </span>\\n      <div  class="right" style="padding-right:20%; padding-top:1%; width:30px" >\\n         <button class="btn btn-primary" style="background-color:#58C5E4; border-color:#58C5E4; zoom:1.5"  v-on:click="toggle_form">Add post</button>\\n      </div>\\n\\n        <div  class="right" style="padding-right:10%; padding-top:1%; width:30px" >\\n         <button class="btn btn-primary" style="background-color:#58C5E4; border-color:#58C5E4; zoom:1.5"  v-on:click="get_usr">Profile</button>\\n      </div>\\n      </div>\\n\\n      <!-- Message in case there are no posts. -->\\n      <div v-if="post_list.length === 0">There are no posts.</div>\\n\\n      <!-- We display the posts. -->\\n\\n      <!-- main page will display three posts with images in each row -->\\n\\n      <div id="post_list" style="padding-top:5%">\\n        <div class="card-deck" style="padding-left:10%">\\n        <div class="d-inline" v-for="post in post_list" style="padding-right:50px; padding-bottom:100px">\\n\\n            <div class="card" style="width: 28rem; height:42rem;">\\n            <img class="card-img-top" src="\', escape=False)'
p106
sI89
S'post.post_image'
p107
sI90
S'response.write(\'"/>\\n            <div class="card-body" style="padding-top:165px;">\\n              <h5 class="card-title" style="zoom: 1.5; ">${post.post_title}</h5>\\n              <p class="card-text" style=" zoom: 1.4;">${post.post_content}</p>\\n            <span class="card-poster">By: ${post.post_author}<br/><br/></span>\\n            <a href="#" v-on:click="go_detail(post._idx)" style=" zoom: 1.7; background-color:#58C5E4; border-color:#58C5E4;" class="btn btn-primary">Explore</a>\\n              <span v-if="user_email === post.post_author" class="fa fa-trash-o" v-on:click="delete_post(post._idx)"> </span>\\n            </div>\\n            </div>\\n\\n        </div>\\n        </div>\\n          </div>\\n        </div>\\n\\n\\n    <div v-if="page === 3">\\n      <span style="font-family: SourceHanSansSC-Bold; font-size: 28px; color: #58C5E4; letter-spacing: 2px;">\\n      Profile\\n      </span>\\n       <!-- <div v-if="profile.status === 0">There are no profile information. Please add.</div> -->\\n       <button class="btn btn-primary" style="background-color:#58C5E4; border-color:#58C5E4; zoom:1.5"  v-on:click="page=1">Home</button>\\n\\n      <div v-if="usrediting === 0">\\n\\n      <div id="usr_profile" style="padding-top:5%">\\n\\n      <div class="d-inline" v-for="usr in usr_list" style="padding-right:50px; padding-bottom:100px">\\n         <!-- <div v-if="user_email === usr.usr_email">  -->\\n            <div class="usr_profile" style="width: 28rem; height:42rem;">\\n          <img class="usr_profile-img" src="https://us.123rf.com/450wm/tuktukdesign/tuktukdesign1606/tuktukdesign160600119/59070200-user-icon-man-profile-businessman-avatar-person-icon-in-vector-illustration.jpg" alt="profile image cap" style = "width: 5rem; height:7rem;"/>\\n            <div class="card-body" style="padding-top:165px;">\\n              <div class="usr-name" style="zoom: 1.8; ">${usr.usr_name}</div>\\n              <div class="usr-major" style=" zoom: 1.6;">${usr.usr_major}</div>\\n              <div class="usr-school" style=" zoom: 1.6;">${usr.usr_school}</div>\\n               <div class="usr-email" style=" zoom: 1.6;">${usr.usr_email}</div>\\n              <div class="usr-experience" style=" zoom: 1.4;">${usr.usr_experience}</div>\\n        <!-- </div> -->\\n        </div>\\n        </div>\\n        </div>\\n          </div>\\n\\n\\n      <button class="btn btn-primary" style="background-color:#58C5E4; border-color:#58C5E4; zoom:1.5"  v-on:click="toggle_usrform">Edit profile</button>\\n      </div>\\n\\n\\n      <div v-if="usrediting === 1">\\n      <div id="edit_profile">\\n        <div style="padding-left:10%; width:90%" >\\n\\n      <label class="form-hint">Name</label>\\n      <textarea type="text" v-model="usr_name" placeholder="Enter your name"\\n      class="md-textarea form-control" rows="1" style="border-color:#58C5E4;font-size:14px"\\n      ></textarea>\\n\\n      <label class="form-hint">Major</label>\\n      <textarea type="text" v-model="usr_major"id="lname" name="lastname" placeholder="Enter your major" class="md-textarea form-control" rows="1" style="border-color:#58C5E4;font-size:14px"></textarea>\\n\\n\\n      <label class="form-hint">School</label>\\n      <textarea type="text" v-model="usr_school" id="lname" name="lastname" placeholder="Enter your school" class="md-textarea form-control"\\n      style="border-color:#58C5E4;font-size:14px; height:100px"></textarea>\\n\\n      <label class="form-hint">Experience</label>\\n      <textarea type="text" v-model="usr_experience" id="lname" name="lastname" placeholder="Enter your experience" class="md-textarea form-control"\\n      style="border-color:#58C5E4;font-size:14px; height:100px"></textarea>\\n\\n      <div style="padding-top:12px;">\\n      <button id="add-post" style=" zoom: 1.7; background-color:#58C5E4; border-color:#58C5E4;" v-on:click="add_usr">Submit</button>\\n      </div>\\n      </div>\\n\\n      </div>\\n      </div>\\n    </div>\\n        <!-- end of page1 -->\\n      </div>\\n      </div>\\n\\n      </div>\\n    </div>\\n</div>\\n\\n<script src="\', escape=False)'
p108
sI91
S"response.write(URL('static', 'js/default_index.js'))"
p109
sI92
S'response.write(\'"></script>\\n\', escape=False)'
p110
sI93
S'response.write(\'\\n    </main>\\n    <footer class="black">\\n      \\n      <div class="container padded max900">\\n        <div class="fill" style="color:white; font-family: SourceHanSansSC-Bold;">\\n          UI/Front End developer: Zeyun Huang<br/>\\n          Backend Support: Yang Chen, Chris Shao\\n        </div>\\n      </div>\\n    </footer>\\n  </body>\\n  <script src="\', escape=False)'
p111
sI94
S"response.write(URL('static','js/marked.min.js'))"
p112
sI95
S'response.write(\'"></script>\\n  <script src="\', escape=False)'
p113
ssg85
S'()'
p114
sg87
S'<module>'
p115
sasS'pyver'
p116
S'Python 2.7.11: D:\\Software\\python27\\python.exe (prefix: D:\\Software\\python27)'
p117
sS'session'
p118
g59
(S's\xdf\x08\x00\x00<div><table><tr><td style="font-weight:bold;vertical-align:top;">auth</td><td style="vertical-align:top;">:</td><td><div><table><tr><td style="font-weight:bold;vertical-align:top;">expiration</td><td style="vertical-align:top;">:</td><td><div>3600</div></td></tr><tr><td style="font-weight:bold;vertical-align:top;">hmac_key</td><td style="vertical-align:top;">:</td><td><div>35636cbc-8cec-4cf2-b012-7eb621a3451f</div></td></tr><tr><td style="font-weight:bold;vertical-align:top;">last_visit</td><td style="vertical-align:top;">:</td><td><div>datetime.datetime(2018, 12, 12, 17, 8, 53, 803000)</div></td></tr><tr><td style="font-weight:bold;vertical-align:top;">remember_me</td><td style="vertical-align:top;">:</td><td><div>False</div></td></tr><tr><td style="font-weight:bold;vertical-align:top;">user</td><td style="vertical-align:top;">:</td><td><div><table><tr><td style="font-weight:bold;vertical-align:top;">email</td><td style="vertical-align:top;">:</td><td><div>123@qq.com</div></td></tr><tr><td style="font-weight:bold;vertical-align:top;">first_name</td><td style="vertical-align:top;">:</td><td><div>test</div></td></tr><tr><td style="font-weight:bold;vertical-align:top;">id</td><td style="vertical-align:top;">:</td><td><div>8L</div></td></tr><tr><td style="font-weight:bold;vertical-align:top;">last_name</td><td style="vertical-align:top;">:</td><td><div>test</div></td></tr><tr><td style="font-weight:bold;vertical-align:top;">registration_id</td><td style="vertical-align:top;">:</td><td><div></div></td></tr><tr><td style="font-weight:bold;vertical-align:top;">registration_key</td><td style="vertical-align:top;">:</td><td><div></div></td></tr><tr><td style="font-weight:bold;vertical-align:top;">reset_password_key</td><td style="vertical-align:top;">:</td><td><div></div></td></tr></table></div></td></tr><tr><td style="font-weight:bold;vertical-align:top;">user_groups</td><td style="vertical-align:top;">:</td><td><div><table><tr><td style="font-weight:bold;vertical-align:top;">8</td><td style="vertical-align:top;">:</td><td><div>user_8</div></td></tr></table></div></td></tr></table></div></td></tr><tr><td style="font-weight:bold;vertical-align:top;">flash</td><td style="vertical-align:top;">:</td><td><div>None</div></td></tr></table></div>'
tRp119
sS'etype'
p120
S"<type 'exceptions.NameError'>"
p121
sS'date'
p122
S'Wed Dec 12 17:11:09 2018'
p123
sS'response'
p124
g59
(S'sR!\x00\x00<div><table><tr><td style="font-weight:bold;vertical-align:top;">body</td><td style="vertical-align:top;">:</td><td><div>&lt;cStringIO.StringO object at 0x0000000020CE0A40&gt;</div></td></tr><tr><td style="font-weight:bold;vertical-align:top;">cookies</td><td style="vertical-align:top;">:</td><td><div><table><tr><td style="font-weight:bold;vertical-align:top;">session_id_startup</td><td style="vertical-align:top;">:</td><td><div>24:a621b5fc-83b7-4189-9b60-adc9d08471e7<table><tr><td style="font-weight:bold;vertical-align:top;">comment</td><td style="vertical-align:top;">:</td><td><div></div></td></tr><tr><td style="font-weight:bold;vertical-align:top;">domain</td><td style="vertical-align:top;">:</td><td><div></div></td></tr><tr><td style="font-weight:bold;vertical-align:top;">expires</td><td style="vertical-align:top;">:</td><td><div></div></td></tr><tr><td style="font-weight:bold;vertical-align:top;">httponly</td><td style="vertical-align:top;">:</td><td><div></div></td></tr><tr><td style="font-weight:bold;vertical-align:top;">max-age</td><td style="vertical-align:top;">:</td><td><div></div></td></tr><tr><td style="font-weight:bold;vertical-align:top;">path</td><td style="vertical-align:top;">:</td><td><div>/</div></td></tr><tr><td style="font-weight:bold;vertical-align:top;">secure</td><td style="vertical-align:top;">:</td><td><div></div></td></tr><tr><td style="font-weight:bold;vertical-align:top;">version</td><td style="vertical-align:top;">:</td><td><div></div></td></tr></table></div></td></tr></table></div></td></tr><tr><td style="font-weight:bold;vertical-align:top;">delimiters</td><td style="vertical-align:top;">:</td><td><div><table><tr><td><div>{{</div></td></tr><tr><td><div>}}</div></td></tr></table></div></td></tr><tr><td style="font-weight:bold;vertical-align:top;">files</td><td style="vertical-align:top;">:</td><td><div><table><tr><td><div>/startup/static/js/jquery.js</div></td></tr><tr><td><div>/startup/static/css/calendar.css</div></td></tr><tr><td><div>/startup/static/js/calendar.js</div></td></tr><tr><td><div>/startup/static/js/web2py.js</div></td></tr></table></div></td></tr><tr><td style="font-weight:bold;vertical-align:top;">flash</td><td style="vertical-align:top;">:</td><td><div></div></td></tr><tr><td style="font-weight:bold;vertical-align:top;">form_label_separator</td><td style="vertical-align:top;">:</td><td><div></div></td></tr><tr><td style="font-weight:bold;vertical-align:top;">formstyle</td><td style="vertical-align:top;">:</td><td><div>bootstrap3_inline</div></td></tr><tr><td style="font-weight:bold;vertical-align:top;">generic_patterns</td><td style="vertical-align:top;">:</td><td><div><table><tr><td><div>*</div></td></tr></table></div></td></tr><tr><td style="font-weight:bold;vertical-align:top;">google_analytics_id</td><td style="vertical-align:top;">:</td><td><div>None</div></td></tr><tr><td style="font-weight:bold;vertical-align:top;">headers</td><td style="vertical-align:top;">:</td><td><div><table><tr><td style="font-weight:bold;vertical-align:top;">X-Powered-By</td><td style="vertical-align:top;">:</td><td><div>web2py</div></td></tr></table></div></td></tr><tr><td style="font-weight:bold;vertical-align:top;">logo</td><td style="vertical-align:top;">:</td><td><div><a class="navbar-brand" href="http://www.web2py.com/" id="web2py-logo"><b>web<span>2</span>py</b>&trade;&nbsp;</a></div></td></tr><tr><td style="font-weight:bold;vertical-align:top;">menu</td><td style="vertical-align:top;">:</td><td><div><table><tr><td><div><table><tr><td><div>Home</div></td></tr><tr><td><div>False</div></td></tr><tr><td><div>/startup/default/index</div></td></tr><tr><td><div><table></table></div></td></tr></table></div></td></tr><tr><td><div><table><tr><td><div>My Sites</div></td></tr><tr><td><div>False</div></td></tr><tr><td><div>/admin/default/site</div></td></tr></table></div></td></tr><tr><td><div><table><tr><td><div>Sample Menu 1</div></td></tr><tr><td><div>False</div></td></tr><tr><td><div>#</div></td></tr><tr><td><div><table><tr><td><div><table><tr><td><div>Entry1</div></td></tr><tr><td><div>False</div></td></tr><tr><td><div>/startup/default/entry1</div></td></tr></table></div></td></tr><tr><td><div><table><tr><td><div>Entry2</div></td></tr><tr><td><div>False</div></td></tr><tr><td><div>/startup/default/entry2</div></td></tr></table></div></td></tr></table></div></td></tr></table></div></td></tr><tr><td><div><table><tr><td><div>Sample Menu 2</div></td></tr><tr><td><div>False</div></td></tr><tr><td><div>/startup/default/index</div></td></tr></table></div></td></tr></table></div></td></tr><tr><td style="font-weight:bold;vertical-align:top;">meta</td><td style="vertical-align:top;">:</td><td><div><table><tr><td style="font-weight:bold;vertical-align:top;">author</td><td style="vertical-align:top;">:</td><td><div>Your Name &lt;you@example.com&gt;</div></td></tr><tr><td style="font-weight:bold;vertical-align:top;">description</td><td style="vertical-align:top;">:</td><td><div>a cool new app</div></td></tr><tr><td style="font-weight:bold;vertical-align:top;">generator</td><td style="vertical-align:top;">:</td><td><div>Web2py Web Framework</div></td></tr><tr><td style="font-weight:bold;vertical-align:top;">keywords</td><td style="vertical-align:top;">:</td><td><div><table><tr><td><div>web2py</div></td></tr><tr><td><div>python</div></td></tr><tr><td><div>framework</div></td></tr></table></div></td></tr></table></div></td></tr><tr><td style="font-weight:bold;vertical-align:top;">models_to_run</td><td style="vertical-align:top;">:</td><td><div><table><tr><td><div>^\\w+\\.py$</div></td></tr><tr><td><div>^default/\\w+\\.py$</div></td></tr><tr><td><div>^default/index/\\w+\\.py$</div></td></tr></table></div></td></tr><tr><td style="font-weight:bold;vertical-align:top;">postprocessing</td><td style="vertical-align:top;">:</td><td><div><table></table></div></td></tr><tr><td style="font-weight:bold;vertical-align:top;">session_client</td><td style="vertical-align:top;">:</td><td><div>127.0.0.1</div></td></tr><tr><td style="font-weight:bold;vertical-align:top;">session_cookie_compression_level</td><td style="vertical-align:top;">:</td><td><div>None</div></td></tr><tr><td style="font-weight:bold;vertical-align:top;">session_cookie_expires</td><td style="vertical-align:top;">:</td><td><div>None</div></td></tr><tr><td style="font-weight:bold;vertical-align:top;">session_data_name</td><td style="vertical-align:top;">:</td><td><div>session_data_startup</div></td></tr><tr><td style="font-weight:bold;vertical-align:top;">session_db_record_id</td><td style="vertical-align:top;">:</td><td><div>24L</div></td></tr><tr><td style="font-weight:bold;vertical-align:top;">session_db_table</td><td style="vertical-align:top;">:</td><td><div>&lt;Table web2py_session_startup (id, locked, client_ip, created_datetime, modified_datetime, unique_key, session_data)&gt;</div></td></tr><tr><td style="font-weight:bold;vertical-align:top;">session_db_unique_key</td><td style="vertical-align:top;">:</td><td><div>a621b5fc-83b7-4189-9b60-adc9d08471e7</div></td></tr><tr><td style="font-weight:bold;vertical-align:top;">session_hash</td><td style="vertical-align:top;">:</td><td><div>3fa08e242c6a6251683dfba5976dd5b4</div></td></tr><tr><td style="font-weight:bold;vertical-align:top;">session_id</td><td style="vertical-align:top;">:</td><td><div>24:a621b5fc-83b7-4189-9b60-adc9d08471e7</div></td></tr><tr><td style="font-weight:bold;vertical-align:top;">session_id_name</td><td style="vertical-align:top;">:</td><td><div>session_id_startup</div></td></tr><tr><td style="font-weight:bold;vertical-align:top;">session_masterapp</td><td style="vertical-align:top;">:</td><td><div>startup</div></td></tr><tr><td style="font-weight:bold;vertical-align:top;">session_new</td><td style="vertical-align:top;">:</td><td><div>False</div></td></tr><tr><td style="font-weight:bold;vertical-align:top;">session_storage_type</td><td style="vertical-align:top;">:</td><td><div>db</div></td></tr><tr><td style="font-weight:bold;vertical-align:top;">status</td><td style="vertical-align:top;">:</td><td><div>200</div></td></tr><tr><td style="font-weight:bold;vertical-align:top;">subtitle</td><td style="vertical-align:top;">:</td><td><div></div></td></tr><tr><td style="font-weight:bold;vertical-align:top;">title</td><td style="vertical-align:top;">:</td><td><div>Startup</div></td></tr><tr><td style="font-weight:bold;vertical-align:top;">view</td><td style="vertical-align:top;">:</td><td><div>default/index.html</div></td></tr></table></div>'
tRp125
sS'locals'
p126
(dp127
S'Service'
p128
S"<class 'gluon.tools.Service'>"
p129
sS'FORMAT'
p130
S"'%(asctime)s %(levelname)s %(process)s %(thread)s %(funcName)s():%(lineno)d %(message)s'"
p131
sS'PY2'
p132
S'True'
p133
sS'OBJECT'
p134
S"<class 'gluon.html.OBJECT'>"
p135
sS'SQLDB'
p136
S"<class 'pydal.base.DAL'>"
p137
sg118
S"<Storage {'_auth_next': None, 'flash': None, 'au...gin]': ['566831a8-2783-476f-befa-4ce92acbf144']}>"
p138
sS'LINK'
p139
S"<class 'gluon.html.LINK'>"
p140
sS'BR'
p141
S"<class 'gluon.html.BR'>"
p142
sS'local_import'
p143
S'<function <lambda>>'
p144
sS'OPTGROUP'
p145
S"<class 'gluon.html.OPTGROUP'>"
p146
sS'__package__'
p147
S'None'
p148
sS'PRE'
p149
S"<class 'gluon.html.PRE'>"
p150
sS'IS_INT_IN_RANGE'
p151
S"<class 'gluon.validators.IS_INT_IN_RANGE'>"
p152
sS'to_bytes'
p153
S'<function to_bytes>'
p154
sS'IS_LOWER'
p155
S"<class 'gluon.validators.IS_LOWER'>"
p156
sS'IS_STRONG'
p157
S"<class 'gluon.validators.IS_STRONG'>"
p158
sS'cache'
p159
S'<gluon.cache.Cache object>'
p160
sS'IS_IN_DB'
p161
S"<class 'gluon.validators.IS_IN_DB'>"
p162
sS'TAG'
p163
S'<gluon.html.__TAG__ object>'
p164
sS'SQLField'
p165
S"<class 'pydal.objects.Field'>"
p166
sS'mail'
p167
S'<gluon.tools.Mail object>'
p168
sS'logger'
p169
S'<logging.Logger object>'
p170
sS'BODY'
p171
S"<class 'gluon.html.BODY'>"
p172
sS'IS_DATE_IN_RANGE'
p173
S"<class 'gluon.validators.IS_DATE_IN_RANGE'>"
p174
sS'IFRAME'
p175
S"<class 'gluon.html.IFRAME'>"
p176
sS'URL'
p177
S'<function URL>'
p178
sS'__file__'
p179
S"r'D:\\Development\\web\\web2py\\applications\\startup\\views\\default/index.html'"
p180
sS'db'
p181
S'<DAL uri="sqlite://storage.sqlite">'
p182
sS'auth'
p183
S'<gluon.tools.Auth object>'
p184
sS'P'
S"<class 'gluon.html.P'>"
p185
sS'T'
S'<gluon.languages.translator object>'
p186
sS'iteritems'
p187
S'<function <lambda>>'
p188
sS'XHTML'
p189
S"<class 'gluon.html.XHTML'>"
p190
sS'datetime'
p191
S"<module 'datetime' (built-in)>"
p192
sS'ON'
p193
g133
sS'OL'
p194
S"<class 'gluon.html.OL'>"
p195
sS'TEXTAREA'
p196
S"<class 'gluon.html.TEXTAREA'>"
p197
sS'MENU'
p198
S"<class 'gluon.html.MENU'>"
p199
sS'get_current_time'
p200
S'<function get_current_time>'
p201
sS'EM'
p202
S"<class 'gluon.html.EM'>"
p203
sS'CODE'
p204
S"<class 'gluon.html.CODE'>"
p205
sS'HTTP'
p206
S"<class 'gluon.http.HTTP'>"
p207
sS'HR'
p208
S"<class 'gluon.html.HR'>"
p209
sS'IS_DATETIME'
p210
S"<class 'gluon.validators.IS_DATETIME'>"
p211
sS'reduce'
p212
S'<built-in function reduce>'
p213
sS'STYLE'
p214
S"<class 'gluon.html.STYLE'>"
p215
sS'LABEL'
p216
S"<class 'gluon.html.LABEL'>"
p217
sS'CLEANUP'
p218
S"<class 'gluon.validators.CLEANUP'>"
p219
sS'plugins'
p220
S'<gluon.tools.PluginManager object>'
p221
sS'SELECT'
p222
S"<class 'gluon.html.SELECT'>"
p223
sS'CENTER'
p224
S"<class 'gluon.html.CENTER'>"
p225
sS'Auth'
p226
S"<class 'gluon.tools.Auth'>"
p227
sS'DEVELOPMENT_MENU'
p228
g133
sS'__builtins__'
p229
S"{'ArithmeticError': <type 'exceptions.ArithmeticError'>, 'AssertionError': <type 'exceptions.AssertionError'>, 'AttributeError': <type 'exceptions.AttributeError'>, 'BaseException': <type 'exceptions.BaseException'>, 'BufferError': <type 'exceptions.BufferError'>, 'BytesWarning': <type 'exceptions.BytesWarning'>, 'DeprecationWarning': <type 'exceptions.DeprecationWarning'>, 'EOFError': <type 'exceptions.EOFError'>, 'Ellipsis': Ellipsis, 'EnvironmentError': <type 'exceptions.EnvironmentError'>, ...}"
p230
sS'HTML'
p231
S"<class 'gluon.html.HTML'>"
p232
sS'SQLFORM'
p233
S"<class 'gluon.sqlhtml.SQLFORM'>"
p234
sS'LOAD'
p235
S'<function LOAD>'
p236
sS'redirect'
p237
S'<function redirect>'
p238
sS'FIELDSET'
p239
S"<class 'gluon.html.FIELDSET'>"
p240
sS'IS_EQUAL_TO'
p241
S"<class 'gluon.validators.IS_EQUAL_TO'>"
p242
sS'embed64'
p243
S'<function embed64>'
p244
sS'IS_LIST_OF'
p245
S"<class 'gluon.validators.IS_LIST_OF'>"
p246
sS'INPUT'
p247
S"<class 'gluon.html.INPUT'>"
p248
sS'EMBED'
p249
S"<class 'gluon.html.EMBED'>"
p250
sS'_'
S'<function _>'
p251
sS'FORM'
p252
S"<class 'gluon.html.FORM'>"
p253
sS'logging'
p254
S"<module 'logging' from 'D:\\Software\\python27\\lib\\logging\\__init__.pyc'>"
p255
sS'myconf'
p256
S"{'forms': {'formstyle': 'bootstrap3_inline', 'se...': {'names': 'localhost:*, 127.0.0.1:*, *:*, *'}}"
p257
sS'H2'
p258
S"<class 'gluon.html.H2'>"
p259
sS'H3'
p260
S"<class 'gluon.html.H3'>"
p261
sS'AppConfig'
p262
S'<function AppConfig>'
p263
sS'H1'
p264
S"<class 'gluon.html.H1'>"
p265
sS'H6'
p266
S"<class 'gluon.html.H6'>"
p267
sS'H4'
p268
S"<class 'gluon.html.H4'>"
p269
sS'H5'
p270
S"<class 'gluon.html.H5'>"
p271
sS'UL'
p272
S"<class 'gluon.html.UL'>"
p273
sS'IS_UPPER'
p274
S"<class 'gluon.validators.IS_UPPER'>"
p275
sS'xmlescape'
p276
S'<function xmlescape>'
p277
sS'IS_TIME'
p278
S"<class 'gluon.validators.IS_TIME'>"
p279
sS'OPTION'
p280
S"<class 'gluon.html.OPTION'>"
p281
sS'TITLE'
p282
S"<class 'gluon.html.TITLE'>"
p283
sS'CRYPT'
p284
S"<class 'gluon.validators.CRYPT'>"
p285
sS'IS_EMPTY_OR'
p286
S"<class 'gluon.validators.IS_EMPTY_OR'>"
p287
sS'MARKMIN'
p288
S"<class 'gluon.html.MARKMIN'>"
p289
sS'__name__'
p290
S"'__restricted__'"
p291
sS'STRONG'
p292
S"<class 'gluon.html.STRONG'>"
p293
sS'COL'
p294
S"<class 'gluon.html.COL'>"
p295
sS'service'
p296
S'<gluon.tools.Service object>'
p297
sS'SCRIPT'
p298
S"<class 'gluon.html.SCRIPT'>"
p299
sS'TABLE'
p300
S"<class 'gluon.html.TABLE'>"
p301
sS'IS_IPV4'
p302
S"<class 'gluon.validators.IS_IPV4'>"
p303
sS'IS_LENGTH'
p304
S"<class 'gluon.validators.IS_LENGTH'>"
p305
sS'IS_IPV6'
p306
S"<class 'gluon.validators.IS_IPV6'>"
p307
sS'XML'
p308
S"<class 'gluon.html.XML'>"
p309
sS'B'
S"<class 'gluon.html.B'>"
p310
sS'IMG'
p311
S"<class 'gluon.html.IMG'>"
p312
sS'SQLTABLE'
p313
S"<class 'gluon.sqlhtml.SQLTABLE'>"
p314
sS'IS_MATCH'
p315
S"<class 'gluon.validators.IS_MATCH'>"
p316
sS'IS_ALPHANUMERIC'
p317
S"<class 'gluon.validators.IS_ALPHANUMERIC'>"
p318
sS'get_user_email'
p319
S'<function get_user_email>'
p320
sS'SPAN'
p321
S"<class 'gluon.html.SPAN'>"
p322
sS'IS_JSON'
p323
S"<class 'gluon.validators.IS_JSON'>"
p324
sS'IS_IPADDRESS'
p325
S"<class 'gluon.validators.IS_IPADDRESS'>"
p326
sS'IS_SLUG'
p327
S"<class 'gluon.validators.IS_SLUG'>"
p328
sS'BEAUTIFY'
p329
S"<class 'gluon.html.BEAUTIFY'>"
p330
sS'META'
p331
S"<class 'gluon.html.META'>"
p332
sS'BUTTON'
p333
S"<class 'gluon.html.BUTTON'>"
p334
sS'IS_DATE'
p335
S"<class 'gluon.validators.IS_DATE'>"
p336
sS'IS_EMAIL'
p337
S"<class 'gluon.validators.IS_EMAIL'>"
p338
sS'IS_NOT_EMPTY'
p339
S"<class 'gluon.validators.IS_NOT_EMPTY'>"
p340
sS'xrange'
p341
S"<type 'xrange'>"
p342
sS'TBODY'
p343
S"<class 'gluon.html.TBODY'>"
p344
sS'CAT'
p345
S"<class 'gluon.html.CAT'>"
p346
sS'Field'
p347
S"<class 'pydal.objects.Field'>"
p348
sS'IS_LIST_OF_EMAILS'
p349
S"<class 'gluon.validators.IS_LIST_OF_EMAILS'>"
p350
sg58
S"<Storage {'function': 'index', 'cookies': <Simpl...False, 'is_https': False, 'client': '127.0.0.1'}>"
p351
sS'DIV'
p352
S"<class 'gluon.html.DIV'>"
p353
sS'LEGEND'
p354
S"<class 'gluon.html.LEGEND'>"
p355
sS'to_native'
p356
S'<function to_native>'
p357
sS'COLGROUP'
p358
S"<class 'gluon.html.COLGROUP'>"
p359
sS'DAL'
p360
S"<class 'pydal.base.DAL'>"
p361
sS'ASSIGNJS'
p362
S'<function ASSIGNJS>'
p363
sS'TR'
p364
S"<class 'gluon.html.TR'>"
p365
sS'LI'
p366
S"<class 'gluon.html.LI'>"
p367
sS'TH'
p368
S"<class 'gluon.html.TH'>"
p369
sS'TD'
p370
S"<class 'gluon.html.TD'>"
p371
sS'PluginManager'
p372
S"<class 'gluon.tools.PluginManager'>"
p373
sS'IS_URL'
p374
S"<class 'gluon.validators.IS_URL'>"
p375
sS'A'
S"<class 'gluon.html.A'>"
p376
sS'HEAD'
p377
S"<class 'gluon.html.HEAD'>"
p378
sS'IS_DATETIME_IN_RANGE'
p379
S"<class 'gluon.validators.IS_DATETIME_IN_RANGE'>"
p380
sS'IS_IMAGE'
p381
S"<class 'gluon.validators.IS_IMAGE'>"
p382
sS'I'
S"<class 'gluon.html.I'>"
p383
sS'sys'
p384
S"<module 'sys' (built-in)>"
p385
sS'IS_NOT_IN_DB'
p386
S"<class 'gluon.validators.IS_NOT_IN_DB'>"
p387
sg124
S"<Storage {'body': <cStringIO.StringO object at 0...y, session_data)>, 'view': 'default/index.html'}>"
p388
sS'THEAD'
p389
S"<class 'gluon.html.THEAD'>"
p390
sS'ANY_OF'
p391
S"<class 'gluon.validators.ANY_OF'>"
p392
sS'IS_NULL_OR'
p393
S"<class 'gluon.validators.IS_EMPTY_OR'>"
p394
sS'TFOOT'
p395
S"<class 'gluon.html.TFOOT'>"
p396
sS'IS_FLOAT_IN_RANGE'
p397
S"<class 'gluon.validators.IS_FLOAT_IN_RANGE'>"
p398
sS'IS_EXPR'
p399
S"<class 'gluon.validators.IS_EXPR'>"
p400
sS'IS_IN_SET'
p401
S"<class 'gluon.validators.IS_IN_SET'>"
p402
sS'IS_UPLOAD_FILENAME'
p403
S"<class 'gluon.validators.IS_UPLOAD_FILENAME'>"
p404
sS'TT'
p405
S"<class 'gluon.html.TT'>"
p406
sS'IS_DECIMAL_IN_RANGE'
p407
S"<class 'gluon.validators.IS_DECIMAL_IN_RANGE'>"
p408
sssS'traceback'
p409
S'Traceback (most recent call last):\n  File "D:\\Development\\web\\web2py\\gluon\\restricted.py", line 219, in restricted\n    exec(ccode, environment)\n  File "D:\\Development\\web\\web2py\\applications\\startup\\views\\default/index.html", line 89, in <module>\n    </div>\nNameError: name \'post\' is not defined\n'
p410
s.